target datalayout = "e-m:e-p270:32:32-p271:32:32-p272:64:64-i64:64-i128:128-f80:128-n8:16:32:64-S128"
target triple = "x86_64-pc-linux-gnu"

%struct.png_time_struct = type { i16, i8, i8, i8, i8, i8 }
%struct.tm = type { i32, i32, i32, i32, i32, i32, i32, i32, i32, i64, ptr }

; Function Attrs: nounwind uwtable
define void @png_convert_from_struct_tm(ptr noundef %0, ptr noundef %1) #0 {
  %3 = alloca ptr, align 8
  %4 = alloca ptr, align 8
  store ptr %0, ptr %3, align 8
  store ptr %1, ptr %4, align 8
  %5 = load ptr, ptr %4, align 8
  %6 = getelementptr inbounds %struct.tm, ptr %5, i32 0, i32 5
  %7 = load i32, ptr %6, align 4
  %8 = add nsw i32 1900, %7
  %9 = trunc i32 %8 to i16
  %10 = load ptr, ptr %3, align 8
  %11 = getelementptr inbounds %struct.png_time_struct, ptr %10, i32 0, i32 0
  store i16 %9, ptr %11, align 2
  %12 = load ptr, ptr %4, align 8
  %13 = getelementptr inbounds %struct.tm, ptr %12, i32 0, i32 4
  %14 = load i32, ptr %13, align 8
  %15 = add nsw i32 %14, 1
  %16 = trunc i32 %15 to i8
  %17 = load ptr, ptr %3, align 8
  %18 = getelementptr inbounds %struct.png_time_struct, ptr %17, i32 0, i32 1
  store i8 %16, ptr %18, align 2
  %19 = load ptr, ptr %4, align 8
  %20 = getelementptr inbounds %struct.tm, ptr %19, i32 0, i32 3
  %21 = load i32, ptr %20, align 4
  %22 = trunc i32 %21 to i8
  %23 = load ptr, ptr %3, align 8
  %24 = getelementptr inbounds %struct.png_time_struct, ptr %23, i32 0, i32 2
  store i8 %22, ptr %24, align 1
  %25 = load ptr, ptr %4, align 8
  %26 = getelementptr inbounds %struct.tm, ptr %25, i32 0, i32 2
  %27 = load i32, ptr %26, align 8
  %28 = trunc i32 %27 to i8
  %29 = load ptr, ptr %3, align 8
  %30 = getelementptr inbounds %struct.png_time_struct, ptr %29, i32 0, i32 3
  store i8 %28, ptr %30, align 2
  %31 = load ptr, ptr %4, align 8
  %32 = getelementptr inbounds %struct.tm, ptr %31, i32 0, i32 1
  %33 = load i32, ptr %32, align 4
  %34 = trunc i32 %33 to i8
  %35 = load ptr, ptr %3, align 8
  %36 = getelementptr inbounds %struct.png_time_struct, ptr %35, i32 0, i32 4
  store i8 %34, ptr %36, align 1
  %37 = load ptr, ptr %4, align 8
  %38 = getelementptr inbounds %struct.tm, ptr %37, i32 0, i32 0
  %39 = load i32, ptr %38, align 8
  %40 = trunc i32 %39 to i8
  %41 = load ptr, ptr %3, align 8
  %42 = getelementptr inbounds %struct.png_time_struct, ptr %41, i32 0, i32 5
  store i8 %40, ptr %42, align 2
  ret void
}

; Function Attrs: nounwind uwtable
define void @png_convert_from_time_t(ptr noundef %0, i64 noundef %1) #0 {
  %3 = alloca ptr, align 8
  %4 = alloca i64, align 8
  %5 = alloca ptr, align 8
  store ptr %0, ptr %3, align 8
  store i64 %1, ptr %4, align 8
  %6 = call ptr @gmtime(ptr noundef %4) #8
  store ptr %6, ptr %5, align 8
  %7 = load ptr, ptr %5, align 8
  %8 = icmp eq ptr %7, null
  br i1 %8, label %9, label %11

9:                                                ; preds = %2
  %10 = load ptr, ptr %3, align 8
  call void @llvm.memset.p0.i64(ptr align 2 %10, i8 0, i64 8, i1 false)
  br label %14

11:                                               ; preds = %2
  %12 = load ptr, ptr %3, align 8
  %13 = load ptr, ptr %5, align 8
  call void @png_convert_from_struct_tm(ptr noundef %12, ptr noundef %13)
  br label %14

14:                                               ; preds = %11, %9
  ret void
}