; Function Attrs: nounwind uwtable
define void @png_convert_from_time_t(ptr nocapture noundef writeonly %0, i64 noundef %1) local_unnamed_addr #0 {
  %3 = alloca i64, align 8
  store i64 %1, ptr %3, align 8
  %4 = call ptr @gmtime(ptr noundef nonnull %3) #15
  %5 = icmp eq ptr %4, null
  br i1 %5, label %6, label %7

6:                                                ; preds = %2
  store i64 0, ptr %0, align 2
  br label %32

7:                                                ; preds = %2
  %8 = getelementptr inbounds i8, ptr %4, i64 20
  %9 = load i32, ptr %8, align 4
  %10 = trunc i32 %9 to i16
  %11 = add i16 %10, 1900
  store i16 %11, ptr %0, align 2
  %12 = getelementptr inbounds i8, ptr %4, i64 16
  %13 = load i32, ptr %12, align 8
  %14 = trunc i32 %13 to i8
  %15 = add i8 %14, 1
  %16 = getelementptr inbounds i8, ptr %0, i64 2
  store i8 %15, ptr %16, align 2
  %17 = getelementptr inbounds i8, ptr %4, i64 12
  %18 = load i32, ptr %17, align 4
  %19 = trunc i32 %18 to i8
  %20 = getelementptr inbounds i8, ptr %0, i64 3
  store i8 %19, ptr %20, align 1
  %21 = getelementptr inbounds i8, ptr %4, i64 8
  %22 = load i32, ptr %21, align 8
  %23 = trunc i32 %22 to i8
  %24 = getelementptr inbounds i8, ptr %0, i64 4
  store i8 %23, ptr %24, align 2
  %25 = getelementptr inbounds i8, ptr %4, i64 4
  %26 = load i32, ptr %25, align 4
  %27 = trunc i32 %26 to i8
  %28 = getelementptr inbounds i8, ptr %0, i64 5
  store i8 %27, ptr %28, align 1
  %29 = load i32, ptr %4, align 8
  %30 = trunc i32 %29 to i8
  %31 = getelementptr inbounds i8, ptr %0, i64 6
  store i8 %30, ptr %31, align 2
  br label %32

32:                                               ; preds = %7, %6
  ret void
}